Certificate:
    Data:
        Version: 3 (0x2)
        Serial Number: 392 (0x188)
        Signature Algorithm: sha1WithRSAEncryption
        Issuer: C=UG, L=Tropic, O=Utopia, OU=Relaxation, CN=the trusted CA
        Validity
            Not Before: Feb  9 20:14:55 2012 GMT
            Not After : Oct 18 20:14:55 2025 GMT
        Subject: C=UG, L=Tropic, O=Utopia, OU=Relaxation, CN=pchip10.cern.ch
        Subject Public Key Info:
            Public Key Algorithm: rsaEncryption
                Public-Key: (1024 bit)
                Modulus:
                    00:c0:5c:36:b4:86:26:5c:63:00:22:f1:ae:b0:ef:
                    0b:d5:ec:1e:ce:22:60:d8:10:65:91:2b:e7:03:f6:
                    57:db:62:2f:8b:95:74:62:93:27:1e:0f:33:b8:44:
                    37:8d:e7:d0:86:3c:e0:87:70:c3:24:9e:54:ae:39:
                    d8:38:d3:23:56:d5:64:d8:47:df:31:90:3b:e0:4a:
                    f7:a2:99:1e:3e:f7:56:22:5c:6c:dc:a6:39:a2:32:
                    8d:ce:58:3e:d9:8a:ac:a8:25:d1:b2:31:4f:63:2b:
                    68:5a:08:f9:c9:ae:79:79:79:0c:33:36:f6:84:41:
                    29:bc:04:ff:66:19:e0:cc:37
                Exponent: 65537 (0x10001)
        X509v3 extensions:
            X509v3 Basic Constraints: 
                CA:FALSE
            X509v3 Key Usage: critical
                Digital Signature, Non Repudiation, Key Encipherment
            Netscape Cert Type: 
                SSL Server
            Netscape Comment: 
                OpenSSL Generated Server Certificate
    Signature Algorithm: sha1WithRSAEncryption
        2f:47:9a:d9:a3:2b:af:a8:c4:45:9f:eb:00:d8:a7:0b:47:02:
        b8:e6:6d:b5:c7:31:f8:00:f0:f4:8f:97:39:6b:b0:4c:4b:21:
        48:2d:e3:62:64:0a:b4:3b:1e:da:3b:54:18:3f:f8:a6:c7:01:
        45:15:69:25:fb:6d:e7:8e:c2:12:1c:42:d5:fb:d0:98:a8:9e:
        f5:d3:4b:c7:6d:60:2d:a1:c6:97:85:34:66:37:1d:5c:5f:1f:
        dd:85:f2:ff:aa:d0:e3:5f:a1:08:7a:3f:57:11:8e:bd:a5:c0:
        b2:9c:63:4b:aa:c3:79:2d:bd:af:59:95:af:e0:70:2c:3d:99:
        72:43
-----BEGIN CERTIFICATE-----
MIIClzCCAgCgAwIBAgICAYgwDQYJKoZIhvcNAQEFBQAwXTELMAkGA1UEBhMCVUcx
DzANBgNVBAcTBlRyb3BpYzEPMA0GA1UEChMGVXRvcGlhMRMwEQYDVQQLEwpSZWxh
eGF0aW9uMRcwFQYDVQQDEw50aGUgdHJ1c3RlZCBDQTAeFw0xMjAyMDkyMDE0NTVa
Fw0yNTEwMTgyMDE0NTVaMF4xCzAJBgNVBAYTAlVHMQ8wDQYDVQQHEwZUcm9waWMx
DzANBgNVBAoTBlV0b3BpYTETMBEGA1UECxMKUmVsYXhhdGlvbjEYMBYGA1UEAxMP
cGNoaXAxMC5jZXJuLmNoMIGfMA0GCSqGSIb3DQEBAQUAA4GNADCBiQKBgQDAXDa0
hiZcYwAi8a6w7wvV7B7OImDYEGWRK+cD9lfbYi+LlXRikyceDzO4RDeN59CGPOCH
cMMknlSuOdg40yNW1WTYR98xkDvgSveimR4+91YiXGzcpjmiMo3OWD7ZiqyoJdGy
MU9jK2haCPnJrnl5eQwzNvaEQSm8BP9mGeDMNwIDAQABo2UwYzAJBgNVHRMEAjAA
MA4GA1UdDwEB/wQEAwIF4DARBglghkgBhvhCAQEEBAMCBkAwMwYJYIZIAYb4QgEN
BCYWJE9wZW5TU0wgR2VuZXJhdGVkIFNlcnZlciBDZXJ0aWZpY2F0ZTANBgkqhkiG
9w0BAQUFAAOBgQAvR5rZoyuvqMRFn+sA2KcLRwK45m21xzH4APD0j5c5a7BMSyFI
LeNiZAq0Ox7aO1QYP/imxwFFFWkl+23njsISHELV+9CYqJ7100vHbWAtocaXhTRm
Nx1cXx/dhfL/qtDjX6EIej9XEY69pcCynGNLqsN5Lb2vWZWv4HAsPZlyQw==
-----END CERTIFICATE-----
