Certificate:
    Data:
        Version: 3 (0x2)
        Serial Number: 374 (0x176)
        Signature Algorithm: sha1WithRSAEncryption
        Issuer: C=UG, L=Tropic, O=Utopia, OU=Relaxation, CN=the trusted CA
        Validity
            Not Before: Feb  9 18:47:27 2012 GMT
            Not After : Oct 18 18:47:27 2025 GMT
        Subject: C=UG, L=Tropic, O=Utopia, OU=Relaxation, CN=trusted client
        Subject Public Key Info:
            Public Key Algorithm: rsaEncryption
                Public-Key: (1024 bit)
                Modulus:
                    00:c5:6b:2a:e2:5e:5d:da:4b:a8:66:71:8a:3f:93:
                    72:1f:5b:a6:2c:09:21:8c:88:f2:77:77:0e:86:07:
                    ee:de:37:87:e0:f9:5a:9f:6d:4a:43:26:f1:74:4d:
                    5b:69:22:14:df:ce:9f:66:3f:a8:72:14:7f:9c:a2:
                    d7:a6:c0:b4:24:4a:65:61:ec:54:7e:26:95:1f:6a:
                    ec:46:c1:55:8e:fb:36:e1:70:90:b2:81:5a:04:ae:
                    bc:1f:4d:bf:1c:6a:3e:12:28:82:2a:b8:74:79:83:
                    89:94:a9:2c:53:97:c2:89:da:23:23:c6:90:a9:bc:
                    f9:ab:89:22:8b:f0:de:79:6f
                Exponent: 65537 (0x10001)
        X509v3 extensions:
            X509v3 Basic Constraints: 
                CA:FALSE
            X509v3 Key Usage: critical
                Digital Signature, Non Repudiation, Key Encipherment
            Netscape Cert Type: 
                SSL Client, S/MIME
            Netscape Comment: 
                OpenSSL Generated Client Certificate
    Signature Algorithm: sha1WithRSAEncryption
        ad:42:91:5a:06:aa:fb:9c:61:99:0f:43:1b:b1:4a:9e:4c:89:
        6f:99:c3:28:88:cc:ec:92:51:7c:bf:65:13:12:2d:95:65:f9:
        b7:96:36:cd:05:95:e9:f0:f2:90:98:c6:f9:07:47:f0:bd:6e:
        42:e5:d3:99:a6:24:2d:ae:ee:7a:51:b7:d2:c1:47:7b:47:42:
        d7:c5:53:c1:3c:49:49:da:60:c3:8e:d3:8e:01:b3:40:b3:ac:
        43:07:2a:8b:f6:37:f6:50:1c:54:19:68:9a:ed:8d:c9:77:7f:
        f6:64:cd:13:8c:a8:97:1a:6d:36:ee:e1:5c:66:b0:e8:5c:12:
        fe:88
-----BEGIN CERTIFICATE-----
MIICljCCAf+gAwIBAgICAXYwDQYJKoZIhvcNAQEFBQAwXTELMAkGA1UEBhMCVUcx
DzANBgNVBAcTBlRyb3BpYzEPMA0GA1UEChMGVXRvcGlhMRMwEQYDVQQLEwpSZWxh
eGF0aW9uMRcwFQYDVQQDEw50aGUgdHJ1c3RlZCBDQTAeFw0xMjAyMDkxODQ3Mjda
Fw0yNTEwMTgxODQ3MjdaMF0xCzAJBgNVBAYTAlVHMQ8wDQYDVQQHEwZUcm9waWMx
DzANBgNVBAoTBlV0b3BpYTETMBEGA1UECxMKUmVsYXhhdGlvbjEXMBUGA1UEAxMO
dHJ1c3RlZCBjbGllbnQwgZ8wDQYJKoZIhvcNAQEBBQADgY0AMIGJAoGBAMVrKuJe
XdpLqGZxij+Tch9bpiwJIYyI8nd3DoYH7t43h+D5Wp9tSkMm8XRNW2kiFN/On2Y/
qHIUf5yi16bAtCRKZWHsVH4mlR9q7EbBVY77NuFwkLKBWgSuvB9NvxxqPhIogiq4
dHmDiZSpLFOXwonaIyPGkKm8+auJIovw3nlvAgMBAAGjZTBjMAkGA1UdEwQCMAAw
DgYDVR0PAQH/BAQDAgXgMBEGCWCGSAGG+EIBAQQEAwIFoDAzBglghkgBhvhCAQ0E
JhYkT3BlblNTTCBHZW5lcmF0ZWQgQ2xpZW50IENlcnRpZmljYXRlMA0GCSqGSIb3
DQEBBQUAA4GBAK1CkVoGqvucYZkPQxuxSp5MiW+ZwyiIzOySUXy/ZRMSLZVl+beW
Ns0Flenw8pCYxvkHR/C9bkLl05mmJC2u7npRt9LBR3tHQtfFU8E8SUnaYMOO044B
s0CzrEMHKov2N/ZQHFQZaJrtjcl3f/ZkzROMqJcabTbu4VxmsOhcEv6I
-----END CERTIFICATE-----
